
;CodeVisionAVR C Compiler V3.37 Evaluation
;(C) Copyright 1998-2019 Pavel Haiduc, HP InfoTech s.r.l.
;http://www.hpinfotech.com

;Build configuration    : Debug
;Chip type              : ATtiny13
;Program type           : Application
;Clock frequency        : 0,064000 MHz
;Memory model           : Tiny
;Optimize for           : Size
;(s)printf features     : int, width
;(s)scanf features      : int, width
;External RAM size      : 0
;Data Stack size        : 16 byte(s)
;Heap size              : 0 byte(s)
;Promote 'char' to 'int': Yes
;'char' is unsigned     : Yes
;8 bit enums            : Yes
;Global 'const' stored in FLASH: Yes
;Enhanced function parameter passing: Mode 2
;Automatic register allocation for global variables: On
;Smart register allocation: Off

	#define _MODEL_TINY_

	#pragma AVRPART ADMIN PART_NAME ATtiny13
	#pragma AVRPART MEMORY PROG_FLASH 1024
	#pragma AVRPART MEMORY EEPROM 64
	#pragma AVRPART MEMORY INT_SRAM SIZE 64
	#pragma AVRPART MEMORY INT_SRAM START_ADDR 0x60

	.LISTMAC
	.EQU EERE=0x0
	.EQU EEWE=0x1
	.EQU EEMWE=0x2
	.EQU EECR=0x1C
	.EQU EEDR=0x1D
	.EQU EEARL=0x1E

	.EQU WDTCR=0x21
	.EQU MCUSR=0x34
	.EQU MCUCR=0x35
	.EQU SPL=0x3D
	.EQU SREG=0x3F

	.DEF R0X0=R0
	.DEF R0X1=R1
	.DEF R0X2=R2
	.DEF R0X3=R3
	.DEF R0X4=R4
	.DEF R0X5=R5
	.DEF R0X6=R6
	.DEF R0X7=R7
	.DEF R0X8=R8
	.DEF R0X9=R9
	.DEF R0XA=R10
	.DEF R0XB=R11
	.DEF R0XC=R12
	.DEF R0XD=R13
	.DEF R0XE=R14
	.DEF R0XF=R15
	.DEF R0X10=R16
	.DEF R0X11=R17
	.DEF R0X12=R18
	.DEF R0X13=R19
	.DEF R0X14=R20
	.DEF R0X15=R21
	.DEF R0X16=R22
	.DEF R0X17=R23
	.DEF R0X18=R24
	.DEF R0X19=R25
	.DEF R0X1A=R26
	.DEF R0X1B=R27
	.DEF R0X1C=R28
	.DEF R0X1D=R29
	.DEF R0X1E=R30
	.DEF R0X1F=R31

	.EQU __SRAM_START=0x0060
	.EQU __SRAM_END=0x009F
	.EQU __DSTACK_SIZE=0x0010
	.EQU __HEAP_SIZE=0x0000
	.EQU __CLEAR_SRAM_SIZE=__SRAM_END-__SRAM_START+1

	.MACRO __CPD1N
	CPI  R30,LOW(@0)
	LDI  R26,HIGH(@0)
	CPC  R31,R26
	LDI  R26,BYTE3(@0)
	CPC  R22,R26
	LDI  R26,BYTE4(@0)
	CPC  R23,R26
	.ENDM

	.MACRO __CPD2N
	CPI  R26,LOW(@0)
	LDI  R30,HIGH(@0)
	CPC  R27,R30
	LDI  R30,BYTE3(@0)
	CPC  R24,R30
	LDI  R30,BYTE4(@0)
	CPC  R25,R30
	.ENDM

	.MACRO __CPWRR
	CP   R@0,R@2
	CPC  R@1,R@3
	.ENDM

	.MACRO __CPWRN
	CPI  R@0,LOW(@2)
	LDI  R30,HIGH(@2)
	CPC  R@1,R30
	.ENDM

	.MACRO __ADDB1MN
	SUBI R30,LOW(-@0-(@1))
	.ENDM

	.MACRO __ADDB2MN
	SUBI R26,LOW(-@0-(@1))
	.ENDM

	.MACRO __ADDW1MN
	SUBI R30,LOW(-@0-(@1))
	SBCI R31,HIGH(-@0-(@1))
	.ENDM

	.MACRO __ADDW2MN
	SUBI R26,LOW(-@0-(@1))
	SBCI R27,HIGH(-@0-(@1))
	.ENDM

	.MACRO __ADDW1FN
	SUBI R30,LOW(-2*@0-(@1))
	SBCI R31,HIGH(-2*@0-(@1))
	.ENDM

	.MACRO __ADDD1FN
	SUBI R30,LOW(-2*@0-(@1))
	SBCI R31,HIGH(-2*@0-(@1))
	SBCI R22,BYTE3(-2*@0-(@1))
	.ENDM

	.MACRO __ADDD1N
	SUBI R30,LOW(-@0)
	SBCI R31,HIGH(-@0)
	SBCI R22,BYTE3(-@0)
	SBCI R23,BYTE4(-@0)
	.ENDM

	.MACRO __ADDD2N
	SUBI R26,LOW(-@0)
	SBCI R27,HIGH(-@0)
	SBCI R24,BYTE3(-@0)
	SBCI R25,BYTE4(-@0)
	.ENDM

	.MACRO __SUBD1N
	SUBI R30,LOW(@0)
	SBCI R31,HIGH(@0)
	SBCI R22,BYTE3(@0)
	SBCI R23,BYTE4(@0)
	.ENDM

	.MACRO __SUBD2N
	SUBI R26,LOW(@0)
	SBCI R27,HIGH(@0)
	SBCI R24,BYTE3(@0)
	SBCI R25,BYTE4(@0)
	.ENDM

	.MACRO __ANDBMNN
	LDS  R30,@0+(@1)
	ANDI R30,LOW(@2)
	STS  @0+(@1),R30
	.ENDM

	.MACRO __ANDWMNN
	LDS  R30,@0+(@1)
	ANDI R30,LOW(@2)
	STS  @0+(@1),R30
	LDS  R30,@0+(@1)+1
	ANDI R30,HIGH(@2)
	STS  @0+(@1)+1,R30
	.ENDM

	.MACRO __ANDD1N
	ANDI R30,LOW(@0)
	ANDI R31,HIGH(@0)
	ANDI R22,BYTE3(@0)
	ANDI R23,BYTE4(@0)
	.ENDM

	.MACRO __ANDD2N
	ANDI R26,LOW(@0)
	ANDI R27,HIGH(@0)
	ANDI R24,BYTE3(@0)
	ANDI R25,BYTE4(@0)
	.ENDM

	.MACRO __ORBMNN
	LDS  R30,@0+(@1)
	ORI  R30,LOW(@2)
	STS  @0+(@1),R30
	.ENDM

	.MACRO __ORWMNN
	LDS  R30,@0+(@1)
	ORI  R30,LOW(@2)
	STS  @0+(@1),R30
	LDS  R30,@0+(@1)+1
	ORI  R30,HIGH(@2)
	STS  @0+(@1)+1,R30
	.ENDM

	.MACRO __ORD1N
	ORI  R30,LOW(@0)
	ORI  R31,HIGH(@0)
	ORI  R22,BYTE3(@0)
	ORI  R23,BYTE4(@0)
	.ENDM

	.MACRO __ORD2N
	ORI  R26,LOW(@0)
	ORI  R27,HIGH(@0)
	ORI  R24,BYTE3(@0)
	ORI  R25,BYTE4(@0)
	.ENDM

	.MACRO __DELAY_USB
	LDI  R24,LOW(@0)
__DELAY_USB_LOOP:
	DEC  R24
	BRNE __DELAY_USB_LOOP
	.ENDM

	.MACRO __DELAY_USW
	LDI  R24,LOW(@0)
	LDI  R25,HIGH(@0)
__DELAY_USW_LOOP:
	SBIW R24,1
	BRNE __DELAY_USW_LOOP
	.ENDM

	.MACRO __GETD1S
	LDD  R30,Y+@0
	LDD  R31,Y+@0+1
	LDD  R22,Y+@0+2
	LDD  R23,Y+@0+3
	.ENDM

	.MACRO __GETD2S
	LDD  R26,Y+@0
	LDD  R27,Y+@0+1
	LDD  R24,Y+@0+2
	LDD  R25,Y+@0+3
	.ENDM

	.MACRO __PUTD1S
	STD  Y+@0,R30
	STD  Y+@0+1,R31
	STD  Y+@0+2,R22
	STD  Y+@0+3,R23
	.ENDM

	.MACRO __PUTD2S
	STD  Y+@0,R26
	STD  Y+@0+1,R27
	STD  Y+@0+2,R24
	STD  Y+@0+3,R25
	.ENDM

	.MACRO __PUTDZ2
	STD  Z+@0,R26
	STD  Z+@0+1,R27
	STD  Z+@0+2,R24
	STD  Z+@0+3,R25
	.ENDM

	.MACRO __CLRD1S
	STD  Y+@0,R30
	STD  Y+@0+1,R30
	STD  Y+@0+2,R30
	STD  Y+@0+3,R30
	.ENDM

	.MACRO __POINTB1MN
	LDI  R30,LOW(@0+(@1))
	.ENDM

	.MACRO __POINTW1MN
	LDI  R30,LOW(@0+(@1))
	LDI  R31,HIGH(@0+(@1))
	.ENDM

	.MACRO __POINTD1M
	LDI  R30,LOW(@0)
	LDI  R31,HIGH(@0)
	LDI  R22,BYTE3(@0)
	LDI  R23,BYTE4(@0)
	.ENDM

	.MACRO __POINTW1FN
	LDI  R30,LOW(2*@0+(@1))
	LDI  R31,HIGH(2*@0+(@1))
	.ENDM

	.MACRO __POINTD1FN
	LDI  R30,LOW(2*@0+(@1))
	LDI  R31,HIGH(2*@0+(@1))
	LDI  R22,BYTE3(2*@0+(@1))
	LDI  R23,BYTE4(2*@0+(@1))
	.ENDM

	.MACRO __POINTB2MN
	LDI  R26,LOW(@0+(@1))
	.ENDM

	.MACRO __POINTW2MN
	LDI  R26,LOW(@0+(@1))
	LDI  R27,HIGH(@0+(@1))
	.ENDM

	.MACRO __POINTD2M
	LDI  R26,LOW(@0)
	LDI  R27,HIGH(@0)
	LDI  R24,BYTE3(@0)
	LDI  R25,BYTE4(@0)
	.ENDM

	.MACRO __POINTW2FN
	LDI  R26,LOW(2*@0+(@1))
	LDI  R27,HIGH(2*@0+(@1))
	.ENDM

	.MACRO __POINTD2FN
	LDI  R26,LOW(2*@0+(@1))
	LDI  R27,HIGH(2*@0+(@1))
	LDI  R24,BYTE3(2*@0+(@1))
	LDI  R25,BYTE4(2*@0+(@1))
	.ENDM

	.MACRO __POINTBRM
	LDI  R@0,LOW(@1)
	.ENDM

	.MACRO __POINTWRM
	LDI  R@0,LOW(@2)
	LDI  R@1,HIGH(@2)
	.ENDM

	.MACRO __POINTBRMN
	LDI  R@0,LOW(@1+(@2))
	.ENDM

	.MACRO __POINTWRMN
	LDI  R@0,LOW(@2+(@3))
	LDI  R@1,HIGH(@2+(@3))
	.ENDM

	.MACRO __POINTWRFN
	LDI  R@0,LOW(@2*2+(@3))
	LDI  R@1,HIGH(@2*2+(@3))
	.ENDM

	.MACRO __GETD1N
	LDI  R30,LOW(@0)
	LDI  R31,HIGH(@0)
	LDI  R22,BYTE3(@0)
	LDI  R23,BYTE4(@0)
	.ENDM

	.MACRO __GETD2N
	LDI  R26,LOW(@0)
	LDI  R27,HIGH(@0)
	LDI  R24,BYTE3(@0)
	LDI  R25,BYTE4(@0)
	.ENDM

	.MACRO __GETB1MN
	LDS  R30,@0+(@1)
	.ENDM

	.MACRO __GETB1HMN
	LDS  R31,@0+(@1)
	.ENDM

	.MACRO __GETW1MN
	LDS  R30,@0+(@1)
	LDS  R31,@0+(@1)+1
	.ENDM

	.MACRO __GETD1MN
	LDS  R30,@0+(@1)
	LDS  R31,@0+(@1)+1
	LDS  R22,@0+(@1)+2
	LDS  R23,@0+(@1)+3
	.ENDM

	.MACRO __GETBRMN
	LDS  R@0,@1+(@2)
	.ENDM

	.MACRO __GETWRMN
	LDS  R@0,@2+(@3)
	LDS  R@1,@2+(@3)+1
	.ENDM

	.MACRO __GETWRZ
	LDD  R@0,Z+@2
	LDD  R@1,Z+@2+1
	.ENDM

	.MACRO __GETD2Z
	LDD  R26,Z+@0
	LDD  R27,Z+@0+1
	LDD  R24,Z+@0+2
	LDD  R25,Z+@0+3
	.ENDM

	.MACRO __GETB2MN
	LDS  R26,@0+(@1)
	.ENDM

	.MACRO __GETW2MN
	LDS  R26,@0+(@1)
	LDS  R27,@0+(@1)+1
	.ENDM

	.MACRO __GETD2MN
	LDS  R26,@0+(@1)
	LDS  R27,@0+(@1)+1
	LDS  R24,@0+(@1)+2
	LDS  R25,@0+(@1)+3
	.ENDM

	.MACRO __PUTB1MN
	STS  @0+(@1),R30
	.ENDM

	.MACRO __PUTW1MN
	STS  @0+(@1),R30
	STS  @0+(@1)+1,R31
	.ENDM

	.MACRO __PUTD1MN
	STS  @0+(@1),R30
	STS  @0+(@1)+1,R31
	STS  @0+(@1)+2,R22
	STS  @0+(@1)+3,R23
	.ENDM

	.MACRO __PUTB1EN
	LDI  R26,LOW(@0+(@1))
	LDI  R27,HIGH(@0+(@1))
	RCALL __EEPROMWRB
	.ENDM

	.MACRO __PUTW1EN
	LDI  R26,LOW(@0+(@1))
	LDI  R27,HIGH(@0+(@1))
	RCALL __EEPROMWRW
	.ENDM

	.MACRO __PUTD1EN
	LDI  R26,LOW(@0+(@1))
	LDI  R27,HIGH(@0+(@1))
	RCALL __EEPROMWRD
	.ENDM

	.MACRO __PUTBR0MN
	STS  @0+(@1),R0
	.ENDM

	.MACRO __PUTBMRN
	STS  @0+(@1),R@2
	.ENDM

	.MACRO __PUTWMRN
	STS  @0+(@1),R@2
	STS  @0+(@1)+1,R@3
	.ENDM

	.MACRO __PUTBZR
	STD  Z+@1,R@0
	.ENDM

	.MACRO __PUTWZR
	STD  Z+@2,R@0
	STD  Z+@2+1,R@1
	.ENDM

	.MACRO __GETW1R
	MOV  R30,R@0
	MOV  R31,R@1
	.ENDM

	.MACRO __GETW2R
	MOV  R26,R@0
	MOV  R27,R@1
	.ENDM

	.MACRO __GETWRN
	LDI  R@0,LOW(@2)
	LDI  R@1,HIGH(@2)
	.ENDM

	.MACRO __PUTW1R
	MOV  R@0,R30
	MOV  R@1,R31
	.ENDM

	.MACRO __PUTW2R
	MOV  R@0,R26
	MOV  R@1,R27
	.ENDM

	.MACRO __ADDWRN
	SUBI R@0,LOW(-@2)
	SBCI R@1,HIGH(-@2)
	.ENDM

	.MACRO __ADDWRR
	ADD  R@0,R@2
	ADC  R@1,R@3
	.ENDM

	.MACRO __SUBWRN
	SUBI R@0,LOW(@2)
	SBCI R@1,HIGH(@2)
	.ENDM

	.MACRO __SUBWRR
	SUB  R@0,R@2
	SBC  R@1,R@3
	.ENDM

	.MACRO __ANDWRN
	ANDI R@0,LOW(@2)
	ANDI R@1,HIGH(@2)
	.ENDM

	.MACRO __ANDWRR
	AND  R@0,R@2
	AND  R@1,R@3
	.ENDM

	.MACRO __ORWRN
	ORI  R@0,LOW(@2)
	ORI  R@1,HIGH(@2)
	.ENDM

	.MACRO __ORWRR
	OR   R@0,R@2
	OR   R@1,R@3
	.ENDM

	.MACRO __EORWRR
	EOR  R@0,R@2
	EOR  R@1,R@3
	.ENDM

	.MACRO __GETWRS
	LDD  R@0,Y+@2
	LDD  R@1,Y+@2+1
	.ENDM

	.MACRO __PUTBSR
	STD  Y+@1,R@0
	.ENDM

	.MACRO __PUTWSR
	STD  Y+@2,R@0
	STD  Y+@2+1,R@1
	.ENDM

	.MACRO __MOVEWRR
	MOV  R@0,R@2
	MOV  R@1,R@3
	.ENDM

	.MACRO __INWR
	IN   R@0,@2
	IN   R@1,@2+1
	.ENDM

	.MACRO __OUTWR
	OUT  @2+1,R@1
	OUT  @2,R@0
	.ENDM

	.MACRO __CALL1MN
	LDS  R30,@0+(@1)
	LDS  R31,@0+(@1)+1
	ICALL
	.ENDM

	.MACRO __CALL1FN
	LDI  R30,LOW(2*@0+(@1))
	LDI  R31,HIGH(2*@0+(@1))
	RCALL __GETW1PF
	ICALL
	.ENDM

	.MACRO __CALL2EN
	PUSH R26
	PUSH R27
	LDI  R26,LOW(@0+(@1))
	LDI  R27,HIGH(@0+(@1))
	RCALL __EEPROMRDW
	POP  R27
	POP  R26
	ICALL
	.ENDM

	.MACRO __CALL2EX
	SUBI R26,LOW(-@0)
	SBCI R27,HIGH(-@0)
	RCALL __EEPROMRDD
	ICALL
	.ENDM

	.MACRO __GETW1STACK
	IN   R30,SPL
	IN   R31,SPH
	ADIW R30,@0+1
	LD   R0,Z+
	LD   R31,Z
	MOV  R30,R0
	.ENDM

	.MACRO __GETD1STACK
	IN   R30,SPL
	IN   R31,SPH
	ADIW R30,@0+1
	LD   R0,Z+
	LD   R1,Z+
	LD   R22,Z
	MOV  R30,R0
	MOV  R31,R1
	.ENDM

	.MACRO __NBST
	BST  R@0,@1
	IN   R30,SREG
	LDI  R31,0x40
	EOR  R30,R31
	OUT  SREG,R30
	.ENDM


	.MACRO __PUTB1SN
	LDD  R26,Y+@0
	SUBI R26,-@1
	ST   X,R30
	.ENDM

	.MACRO __PUTW1SN
	LDD  R26,Y+@0
	SUBI R26,-@1
	ST   X+,R30
	ST   X,R31
	.ENDM

	.MACRO __PUTD1SN
	LDD  R26,Y+@0
	SUBI R26,-@1
	RCALL __PUTDP1
	.ENDM

	.MACRO __PUTB1SNS
	LDD  R26,Y+@0
	SUBI R26,-@1
	ST   X,R30
	.ENDM

	.MACRO __PUTW1SNS
	LDD  R26,Y+@0
	SUBI R26,-@1
	ST   X+,R30
	ST   X,R31
	.ENDM

	.MACRO __PUTD1SNS
	LDD  R26,Y+@0
	SUBI R26,-@1
	RCALL __PUTDP1
	.ENDM

	.MACRO __PUTB1RN
	MOV  R26,R@0
	SUBI R26,-@1
	ST   X,R30
	.ENDM

	.MACRO __PUTW1RN
	MOV  R26,R@0
	SUBI R26,-@1
	ST   X+,R30
	ST   X,R31
	.ENDM

	.MACRO __PUTD1RN
	MOV  R26,R@0
	SUBI R26,-@1
	RCALL __PUTDP1
	.ENDM

	.MACRO __PUTB1RNS
	MOV  R26,R@0
	SUBI R26,-@1
	ST   X,R30
	.ENDM

	.MACRO __PUTW1RNS
	MOV  R26,R@0
	SUBI R26,-@1
	ST   X+,R30
	ST   X,R31
	.ENDM

	.MACRO __PUTD1RNS
	MOV  R26,R@0
	SUBI R26,-@1
	RCALL __PUTDP1
	.ENDM

	.MACRO __PUTB1PMN
	LDS  R26,@0
	SUBI R26,-@1
	ST   X,R30
	.ENDM

	.MACRO __PUTW1PMN
	LDS  R26,@0
	SUBI R26,-@1
	ST   X+,R30
	ST   X,R31
	.ENDM

	.MACRO __PUTD1PMN
	LDS  R26,@0
	SUBI R26,-@1
	RCALL __PUTDP1
	.ENDM

	.MACRO __PUTB1PMNS
	LDS  R26,@0
	SUBI R26,-@1
	ST   X,R30
	.ENDM

	.MACRO __PUTW1PMNS
	LDS  R26,@0
	SUBI R26,-@1
	ST   X+,R30
	ST   X,R31
	.ENDM

	.MACRO __PUTD1PMNS
	LDS  R26,@0
	SUBI R26,-@1
	RCALL __PUTDP1
	.ENDM

	.MACRO __GETB1SX
	MOV  R30,R28
	MOV  R31,R29
	SUBI R30,LOW(-@0)
	SBCI R31,HIGH(-@0)
	LD   R30,Z
	.ENDM

	.MACRO __GETB1HSX
	MOV  R30,R28
	MOV  R31,R29
	SUBI R30,LOW(-@0)
	SBCI R31,HIGH(-@0)
	LD   R31,Z
	.ENDM

	.MACRO __GETW1SX
	MOV  R30,R28
	MOV  R31,R29
	SUBI R30,LOW(-@0)
	SBCI R31,HIGH(-@0)
	LD   R0,Z+
	LD   R31,Z
	MOV  R30,R0
	.ENDM

	.MACRO __GETD1SX
	MOV  R30,R28
	MOV  R31,R29
	SUBI R30,LOW(-@0)
	SBCI R31,HIGH(-@0)
	LD   R0,Z+
	LD   R1,Z+
	LD   R22,Z+
	LD   R23,Z
	MOV  R30,R0
	MOV  R31,R1
	.ENDM

	.MACRO __GETB2SX
	MOV  R26,R28
	MOV  R27,R29
	SUBI R26,LOW(-@0)
	SBCI R27,HIGH(-@0)
	LD   R26,X
	.ENDM

	.MACRO __GETW2SX
	MOV  R26,R28
	MOV  R27,R29
	SUBI R26,LOW(-@0)
	SBCI R27,HIGH(-@0)
	LD   R0,X+
	LD   R27,X
	MOV  R26,R0
	.ENDM

	.MACRO __GETD2SX
	MOV  R26,R28
	MOV  R27,R29
	SUBI R26,LOW(-@0)
	SBCI R27,HIGH(-@0)
	LD   R0,X+
	LD   R1,X+
	LD   R24,X+
	LD   R25,X
	MOV  R26,R0
	MOV  R27,R1
	.ENDM

	.MACRO __GETBRSX
	MOV  R30,R28
	MOV  R31,R29
	SUBI R30,LOW(-@1)
	SBCI R31,HIGH(-@1)
	LD   R@0,Z
	.ENDM

	.MACRO __GETWRSX
	MOV  R30,R28
	MOV  R31,R29
	SUBI R30,LOW(-@2)
	SBCI R31,HIGH(-@2)
	LD   R@0,Z+
	LD   R@1,Z
	.ENDM

	.MACRO __GETBRSX2
	MOV  R26,R28
	MOV  R27,R29
	SUBI R26,LOW(-@1)
	SBCI R27,HIGH(-@1)
	LD   R@0,X
	.ENDM

	.MACRO __GETWRSX2
	MOV  R26,R28
	MOV  R27,R29
	SUBI R26,LOW(-@2)
	SBCI R27,HIGH(-@2)
	LD   R@0,X+
	LD   R@1,X
	.ENDM

	.MACRO __LSLW8SX
	MOV  R30,R28
	MOV  R31,R29
	SUBI R30,LOW(-@0)
	SBCI R31,HIGH(-@0)
	LD   R31,Z
	CLR  R30
	.ENDM

	.MACRO __PUTB1SX
	MOV  R26,R28
	MOV  R27,R29
	SUBI R26,LOW(-@0)
	SBCI R27,HIGH(-@0)
	ST   X,R30
	.ENDM

	.MACRO __PUTW1SX
	MOV  R26,R28
	MOV  R27,R29
	SUBI R26,LOW(-@0)
	SBCI R27,HIGH(-@0)
	ST   X+,R30
	ST   X,R31
	.ENDM

	.MACRO __PUTD1SX
	MOV  R26,R28
	MOV  R27,R29
	SUBI R26,LOW(-@0)
	SBCI R27,HIGH(-@0)
	ST   X+,R30
	ST   X+,R31
	ST   X+,R22
	ST   X,R23
	.ENDM

	.MACRO __CLRW1SX
	MOV  R26,R28
	MOV  R27,R29
	SUBI R26,LOW(-@0)
	SBCI R27,HIGH(-@0)
	ST   X+,R30
	ST   X,R30
	.ENDM

	.MACRO __CLRD1SX
	MOV  R26,R28
	MOV  R27,R29
	SUBI R26,LOW(-@0)
	SBCI R27,HIGH(-@0)
	ST   X+,R30
	ST   X+,R30
	ST   X+,R30
	ST   X,R30
	.ENDM

	.MACRO __PUTB2SX
	MOV  R30,R28
	MOV  R31,R29
	SUBI R30,LOW(-@0)
	SBCI R31,HIGH(-@0)
	ST   Z,R26
	.ENDM

	.MACRO __PUTW2SX
	MOV  R30,R28
	MOV  R31,R29
	SUBI R30,LOW(-@0)
	SBCI R31,HIGH(-@0)
	ST   Z+,R26
	ST   Z,R27
	.ENDM

	.MACRO __PUTD2SX
	MOV  R30,R28
	MOV  R31,R29
	SUBI R30,LOW(-@0)
	SBCI R31,HIGH(-@0)
	ST   Z+,R26
	ST   Z+,R27
	ST   Z+,R24
	ST   Z,R25
	.ENDM

	.MACRO __PUTBSRX
	MOV  R30,R28
	MOV  R31,R29
	SUBI R30,LOW(-@1)
	SBCI R31,HIGH(-@1)
	ST   Z,R@0
	.ENDM

	.MACRO __PUTWSRX
	MOV  R30,R28
	MOV  R31,R29
	SUBI R30,LOW(-@2)
	SBCI R31,HIGH(-@2)
	ST   Z+,R@0
	ST   Z,R@1
	.ENDM

	.MACRO __PUTB1SNX
	MOV  R26,R28
	MOV  R27,R29
	SUBI R26,LOW(-@0)
	SBCI R27,HIGH(-@0)
	LD   R0,X+
	LD   R27,X
	MOV  R26,R0
	SUBI R26,LOW(-@1)
	SBCI R27,HIGH(-@1)
	ST   X,R30
	.ENDM

	.MACRO __PUTW1SNX
	MOV  R26,R28
	MOV  R27,R29
	SUBI R26,LOW(-@0)
	SBCI R27,HIGH(-@0)
	LD   R0,X+
	LD   R27,X
	MOV  R26,R0
	SUBI R26,LOW(-@1)
	SBCI R27,HIGH(-@1)
	ST   X+,R30
	ST   X,R31
	.ENDM

	.MACRO __PUTD1SNX
	MOV  R26,R28
	MOV  R27,R29
	SUBI R26,LOW(-@0)
	SBCI R27,HIGH(-@0)
	LD   R0,X+
	LD   R27,X
	MOV  R26,R0
	SUBI R26,LOW(-@1)
	SBCI R27,HIGH(-@1)
	ST   X+,R30
	ST   X+,R31
	ST   X+,R22
	ST   X,R23
	.ENDM

;NAME DEFINITIONS FOR GLOBAL VARIABLES ALLOCATED TO REGISTERS
	.DEF _brightness_level_percent=R4
	.DEF _control_buttons_status=R5
	.DEF _control_buttons_update=R6

	.CSEG
	.ORG 0x00

;START OF CODE MARKER
__START_OF_CODE:

;INTERRUPT VECTORS
	RJMP __RESET
	RJMP _exterInt0
	RJMP 0x00
	RJMP 0x00
	RJMP 0x00
	RJMP 0x00
	RJMP 0x00
	RJMP 0x00
	RJMP 0x00
	RJMP 0x00

;GLOBAL REGISTER VARIABLES INITIALIZATION
__REG_VARS:
	.DB  0x0,0x0,0x0


__GLOBAL_INI_TBL:
	.DW  0x03
	.DW  0x04
	.DW  __REG_VARS*2

_0xFFFFFFFF:
	.DW  0

#define __GLOBAL_INI_TBL_PRESENT 1

__RESET:
	CLI
	CLR  R30
	OUT  EECR,R30
	OUT  MCUCR,R30

;CLEAR R2-R14
	LDI  R24,(14-2)+1
	LDI  R26,2
__CLEAR_REG:
	ST   X+,R30
	DEC  R24
	BRNE __CLEAR_REG

;CLEAR SRAM
	LDI  R24,__CLEAR_SRAM_SIZE
	LDI  R26,__SRAM_START
__CLEAR_SRAM:
	ST   X+,R30
	DEC  R24
	BRNE __CLEAR_SRAM

;GLOBAL VARIABLES INITIALIZATION
	LDI  R30,LOW(__GLOBAL_INI_TBL*2)
	LDI  R31,HIGH(__GLOBAL_INI_TBL*2)
__GLOBAL_INI_NEXT:
	LPM
	ADIW R30,1
	MOV  R24,R0
	LPM
	ADIW R30,1
	MOV  R25,R0
	SBIW R24,0
	BREQ __GLOBAL_INI_END
	LPM
	ADIW R30,1
	MOV  R26,R0
	LPM
	ADIW R30,1
	MOV  R27,R0
	LPM
	ADIW R30,1
	MOV  R1,R0
	LPM
	ADIW R30,1
	MOV  R22,R30
	MOV  R23,R31
	MOV  R31,R0
	MOV  R30,R1
__GLOBAL_INI_LOOP:
	LPM
	ADIW R30,1
	ST   X+,R0
	SBIW R24,1
	BRNE __GLOBAL_INI_LOOP
	MOV  R30,R22
	MOV  R31,R23
	RJMP __GLOBAL_INI_NEXT
__GLOBAL_INI_END:

;HARDWARE STACK POINTER INITIALIZATION
	LDI  R30,LOW(__SRAM_END-__HEAP_SIZE)
	OUT  SPL,R30

;DATA STACK POINTER INITIALIZATION
	LDI  R28,LOW(__SRAM_START+__DSTACK_SIZE)

	RJMP _main

	.ESEG
	.ORG 0x00

	.DSEG
	.ORG 0x70

	.CSEG
;#define F_CPU 4800000UL
;#include <tiny13.h>
	#ifndef __SLEEP_DEFINED__
	#define __SLEEP_DEFINED__
	.EQU __se_bit=0x20
	.EQU __sm_mask=0x18
	.EQU __sm_adc_noise_red=0x08
	.EQU __sm_powerdown=0x10
	.SET power_ctrl_reg=mcucr
	#endif
;#include <io.h>
;#include <delay.h>
;#include <stdbool.h>
;#include <stdint.h>
;
;
;
;#define PB0   (1<<0)
;#define PB1   (1<<1)
;#define PB3   (1<<3)
;#define PB4   (1<<4)
;#define PB5   (1<<5)
;#define PB6   (1<<6)
;#define PB7   (1<<7)
;
;
;#define WGM     (0x03) << 0
;#define COM_A   (0x02) << 6
;#define COM_B   (0x02) << 4
;#define CS      (0x03) << 0
;
;uint8_t brightness_level_percent = 0;
;uint8_t control_buttons_status = 0; // 0 - no used; 1 - brightnes up; 2 - brightnes down; 3 - pressing two buttons
;uint8_t control_buttons_update = 0;
;
;
;void initializationDefolt(void);
;void PWM(void);
;uint8_t Check_Button(void);
;void Brightnes_Poll(void);
;
;void EEPROM_write(unsigned int uiAddress, unsigned char ucData);
;unsigned char EEPROM_read(unsigned int uiAddress);
;
;void initializationDefolt(void)
; 0000 0026 {

	.CSEG
_initializationDefolt:
; .FSTART _initializationDefolt
; 0000 0027 	brightness_level_percent = EEPROM_read(0x00);
	LDI  R26,LOW(0)
	LDI  R27,0
	RCALL _EEPROM_read
	MOV  R4,R30
; 0000 0028      // Declare your local variables here
; 0000 0029 
; 0000 002A     // Crystal Oscillator division factor: 1
; 0000 002B     #pragma optsize-
; 0000 002C     CLKPR=(1<<CLKPCE);
	LDI  R30,LOW(128)
	OUT  0x26,R30
; 0000 002D     CLKPR=(0<<CLKPCE) | (0<<CLKPS3) | (0<<CLKPS2) | (0<<CLKPS1) | (0<<CLKPS0);
	LDI  R30,LOW(0)
	OUT  0x26,R30
; 0000 002E     #ifdef _OPTIMIZE_SIZE_
; 0000 002F     #pragma optsize+
; 0000 0030     #endif
; 0000 0031 
; 0000 0032     // Input/Output Ports initialization
; 0000 0033     // Port B initialization
; 0000 0034     // Function: Bit5=In Bit4=In Bit3=In Bit2=In Bit1=In Bit0=In
; 0000 0035     DDRB=(0<<DDB5) | (0<<DDB4) | (0<<DDB3) | (0<<DDB2) | (0<<DDB1) | (1<<DDB0);
	LDI  R30,LOW(1)
	OUT  0x17,R30
; 0000 0036     // State: Bit5=T Bit4=T Bit3=T Bit2=T Bit1=T Bit0=T
; 0000 0037     PORTB=(0<<PORTB5) | (1<<PORTB4) | (1<<PORTB3) | (0<<PORTB2) | (1<<PORTB1) | (0<<PORTB0);
	LDI  R30,LOW(26)
	OUT  0x18,R30
; 0000 0038 
; 0000 0039     // Timer/Counter 0 initialization
; 0000 003A     // Clock source: System Clock
; 0000 003B     // Clock value: Timer 0 Stopped
; 0000 003C     // Mode: Normal top=0xFF
; 0000 003D     // OC0A output: Disconnected
; 0000 003E     // OC0B output: Disconnected
; 0000 003F     TCCR0A=(0<<COM0A1) | (0<<COM0A0) | (0<<COM0B1) | (0<<COM0B0) | (0<<WGM01) | (0<<WGM00);
	LDI  R30,LOW(0)
	OUT  0x2F,R30
; 0000 0040     TCCR0B=(0<<WGM02) | (0<<CS02) | (0<<CS01) | (0<<CS00);
	OUT  0x33,R30
; 0000 0041     TCNT0=0x00;
	OUT  0x32,R30
; 0000 0042     OCR0B=0x00;
	OUT  0x29,R30
; 0000 0043 	if(brightness_level_percent == 0xFF)
	LDI  R30,LOW(255)
	CP   R30,R4
	BRNE _0x3
; 0000 0044 	{
; 0000 0045 		brightness_level_percent = 50;
	LDI  R30,LOW(50)
	MOV  R4,R30
; 0000 0046 	}
; 0000 0047     OCR0A = (brightness_level_percent * 0xFF) / 100;
_0x3:
	RCALL SUBOPT_0x0
; 0000 0048 
; 0000 0049     // Timer/Counter 0 Interrupt(s) initialization
; 0000 004A     TIMSK0=(0<<OCIE0B) | (0<<OCIE0A) | (0<<TOIE0);
	LDI  R30,LOW(0)
	OUT  0x39,R30
; 0000 004B 
; 0000 004C     // External Interrupt(s) initialization
; 0000 004D     // INT0: On
; 0000 004E     // INT0 Mode: Falling Edge
; 0000 004F     // Interrupt on any change on pins PCINT0-5: Off
; 0000 0050     GIMSK=(1<<INT0) | (0<<PCIE);
	LDI  R30,LOW(64)
	OUT  0x3B,R30
; 0000 0051     MCUCR=(1<<ISC01) | (0<<ISC00);
	LDI  R30,LOW(2)
	OUT  0x35,R30
; 0000 0052     GIFR=(1<<INTF0) | (0<<PCIF);
	LDI  R30,LOW(64)
	OUT  0x3A,R30
; 0000 0053 
; 0000 0054     // Analog Comparator initialization
; 0000 0055     // Analog Comparator: Off
; 0000 0056     // The Analog Comparator's positive input is
; 0000 0057     // connected to the AIN0 pin
; 0000 0058     // The Analog Comparator's negative input is
; 0000 0059     // connected to the AIN1 pin
; 0000 005A     ACSR=(1<<ACD) | (0<<ACBG) | (0<<ACO) | (0<<ACI) | (0<<ACIE) | (0<<ACIS1) | (0<<ACIS0);
	LDI  R30,LOW(128)
	OUT  0x8,R30
; 0000 005B     ADCSRB=(0<<ACME);
	LDI  R30,LOW(0)
	OUT  0x3,R30
; 0000 005C     // Digital input buffer on AIN0: On
; 0000 005D     // Digital input buffer on AIN1: On
; 0000 005E     DIDR0=(0<<AIN0D) | (0<<AIN1D);
	OUT  0x14,R30
; 0000 005F 
; 0000 0060     // ADC initialization
; 0000 0061     // ADC disabled
; 0000 0062     ADCSRA=(0<<ADEN) | (0<<ADSC) | (0<<ADATE) | (0<<ADIF) | (0<<ADIE) | (0<<ADPS2) | (0<<ADPS1) | (0<<ADPS0);
	OUT  0x6,R30
; 0000 0063 }
	RET
; .FEND
;
;void main()
; 0000 0066 {
_main:
; .FSTART _main
; 0000 0067     #asm("cli")
	CLI
; 0000 0068     initializationDefolt();
	RCALL _initializationDefolt
; 0000 0069     #asm("sei")
	SEI
; 0000 006A     PWM();
	RCALL _PWM
; 0000 006B     while (1)
_0x4:
; 0000 006C     {
; 0000 006D         Brightnes_Poll();
	RCALL _Brightnes_Poll
; 0000 006E     }
	RJMP _0x4
; 0000 006F }
_0x7:
	RJMP _0x7
; .FEND
;
;void EEPROM_write(unsigned int uiAddress, unsigned char ucData)
; 0000 0072 {
_EEPROM_write:
; .FSTART _EEPROM_write
; 0000 0073 	while(EECR & (1<<EEPE));
	RCALL __SAVELOCR3
	MOV  R16,R26
	__GETWRS 17,18,3
;	uiAddress -> R17,R18
;	ucData -> R16
_0x8:
	SBIC 0x1C,1
	RJMP _0x8
; 0000 0074 	EEAR = uiAddress;
	OUT  0x1E,R17
; 0000 0075 	EEDR = ucData;
	OUT  0x1D,R16
; 0000 0076 	EECR |= (1<<EEMPE);
	SBI  0x1C,2
; 0000 0077 	EECR |= (1<<EEPE);
	SBI  0x1C,1
; 0000 0078 }
	RCALL __LOADLOCR3
	ADIW R28,5
	RET
; .FEND
;
;unsigned char EEPROM_read(unsigned int uiAddress)
; 0000 007B {
_EEPROM_read:
; .FSTART _EEPROM_read
; 0000 007C 
; 0000 007D 	while(EECR & (1<<EEWE));
	RCALL __SAVELOCR2
	__PUTW2R 16,17
;	uiAddress -> R16,R17
_0xB:
	SBIC 0x1C,1
	RJMP _0xB
; 0000 007E 	EEAR = uiAddress;
	OUT  0x1E,R16
; 0000 007F 	EECR |= (1<<EERE);
	SBI  0x1C,0
; 0000 0080 	return EEDR;
	IN   R30,0x1D
	LD   R16,Y+
	LD   R17,Y+
	RET
; 0000 0081 }
; .FEND
;
;void Brightnes_Poll(void)
; 0000 0084 {
_Brightnes_Poll:
; .FSTART _Brightnes_Poll
; 0000 0085 	if(control_buttons_update)
	TST  R6
	BREQ _0xE
; 0000 0086 	{
; 0000 0087 		switch(control_buttons_status)
	MOV  R30,R5
	LDI  R31,0
; 0000 0088 		{
; 0000 0089 			case 1:
	CPI  R30,LOW(0x1)
	LDI  R26,HIGH(0x1)
	CPC  R31,R26
	BRNE _0x12
; 0000 008A 			{
; 0000 008B 				if(brightness_level_percent > 20)
	LDI  R30,LOW(20)
	CP   R30,R4
	BRSH _0x13
; 0000 008C 				{
; 0000 008D 					brightness_level_percent -= 20;
	SUB  R4,R30
; 0000 008E 				}
; 0000 008F 				break;
_0x13:
	RJMP _0x11
; 0000 0090 			}
; 0000 0091 			case 2:
_0x12:
	CPI  R30,LOW(0x2)
	LDI  R26,HIGH(0x2)
	CPC  R31,R26
	BRNE _0x14
; 0000 0092 			{
; 0000 0093 				if(brightness_level_percent < 100)
	LDI  R30,LOW(100)
	CP   R4,R30
	BRSH _0x15
; 0000 0094 				{
; 0000 0095 					brightness_level_percent += 20;
	LDI  R30,LOW(20)
	ADD  R4,R30
; 0000 0096 				}
; 0000 0097 				break;
_0x15:
	RJMP _0x11
; 0000 0098 			}
; 0000 0099 			case 3:
_0x14:
	CPI  R30,LOW(0x3)
	LDI  R26,HIGH(0x3)
	CPC  R31,R26
	BRNE _0x17
; 0000 009A 			{
; 0000 009B 				EEPROM_write(0x00, brightness_level_percent);
	LDI  R30,LOW(0)
	LDI  R31,HIGH(0)
	ST   -Y,R31
	ST   -Y,R30
	MOV  R26,R4
	RCALL _EEPROM_write
; 0000 009C 				break;
	RJMP _0x11
; 0000 009D 			}
; 0000 009E 			default:
_0x17:
; 0000 009F 			{
; 0000 00A0 				control_buttons_status = 0;
	CLR  R5
; 0000 00A1 				return;
	RET
; 0000 00A2 			}
; 0000 00A3 		}
_0x11:
; 0000 00A4 		control_buttons_update = 0;
	CLR  R6
; 0000 00A5 		control_buttons_status = 0;
	CLR  R5
; 0000 00A6 
; 0000 00A7 		OCR0A = (brightness_level_percent * 0xFF) / 100;
	RCALL SUBOPT_0x0
; 0000 00A8 	}
; 0000 00A9 }
_0xE:
	RET
; .FEND
;
;void PWM(void)
; 0000 00AC {
_PWM:
; .FSTART _PWM
; 0000 00AD     TCCR0A = WGM | COM_A | COM_B;
	LDI  R30,LOW(163)
	OUT  0x2F,R30
; 0000 00AE     TCCR0B = CS;
	LDI  R30,LOW(3)
	OUT  0x33,R30
; 0000 00AF     //OCR0A = 0x10;
; 0000 00B0 	//OCR0B = 0x0A;
; 0000 00B1     return;
	RET
; 0000 00B2 }
; .FEND
;
;uint8_t Check_Button(void)
; 0000 00B5 {
_Check_Button:
; .FSTART _Check_Button
; 0000 00B6     if(((~PINB) & PB3) && ((~PINB) & PB4))
	RCALL SUBOPT_0x1
	ANDI R30,LOW(0x8)
	BREQ _0x19
	RCALL SUBOPT_0x1
	ANDI R30,LOW(0x10)
	BRNE _0x1A
_0x19:
	RJMP _0x18
_0x1A:
; 0000 00B7     {
; 0000 00B8         return 3;
	LDI  R30,LOW(3)
	RET
; 0000 00B9     }
; 0000 00BA     else
_0x18:
; 0000 00BB     {
; 0000 00BC         if((~PINB) & PB3)
	RCALL SUBOPT_0x1
	ANDI R30,LOW(0x8)
	BREQ _0x1C
; 0000 00BD         {
; 0000 00BE             return 1;
	LDI  R30,LOW(1)
	RET
; 0000 00BF         }
; 0000 00C0         else
_0x1C:
; 0000 00C1         {
; 0000 00C2             if((~PINB) & PB4)
	RCALL SUBOPT_0x1
	ANDI R30,LOW(0x10)
	BREQ _0x1E
; 0000 00C3             {
; 0000 00C4                 return 2;
	LDI  R30,LOW(2)
	RET
; 0000 00C5             }
; 0000 00C6         }
_0x1E:
; 0000 00C7     }
; 0000 00C8     return 0;
	LDI  R30,LOW(0)
	RET
; 0000 00C9 }
; .FEND
;
;interrupt [EXT_INT0] void exterInt0(void)
; 0000 00CC {
_exterInt0:
; .FSTART _exterInt0
	ST   -Y,R0
	ST   -Y,R1
	ST   -Y,R15
	ST   -Y,R22
	ST   -Y,R23
	ST   -Y,R24
	ST   -Y,R25
	ST   -Y,R26
	ST   -Y,R27
	ST   -Y,R30
	ST   -Y,R31
	IN   R30,SREG
	ST   -Y,R30
; 0000 00CD 	control_buttons_status = Check_Button();
	RCALL _Check_Button
	MOV  R5,R30
; 0000 00CE 
; 0000 00CF 	control_buttons_update++;
	INC  R6
; 0000 00D0 }
	LD   R30,Y+
	OUT  SREG,R30
	LD   R31,Y+
	LD   R30,Y+
	LD   R27,Y+
	LD   R26,Y+
	LD   R25,Y+
	LD   R24,Y+
	LD   R23,Y+
	LD   R22,Y+
	LD   R15,Y+
	LD   R1,Y+
	LD   R0,Y+
	RETI
; .FEND
;

	.CSEG
;OPTIMIZER ADDED SUBROUTINE, CALLED 2 TIMES, CODE SIZE REDUCTION:8 WORDS
SUBOPT_0x0:
	MOV  R26,R4
	LDI  R27,0
	LDI  R30,LOW(255)
	LDI  R31,HIGH(255)
	RCALL __MULW12
	MOV  R26,R30
	MOV  R27,R31
	LDI  R30,LOW(100)
	LDI  R31,HIGH(100)
	RCALL __DIVW21
	OUT  0x36,R30
	RET

;OPTIMIZER ADDED SUBROUTINE, CALLED 4 TIMES, CODE SIZE REDUCTION:1 WORDS
SUBOPT_0x1:
	IN   R30,0x16
	COM  R30
	RET

;RUNTIME LIBRARY

	.CSEG
__SAVELOCR3:
	ST   -Y,R18
__SAVELOCR2:
	ST   -Y,R17
	ST   -Y,R16
	RET

__LOADLOCR3:
	LDD  R18,Y+2
__LOADLOCR2:
	LDD  R17,Y+1
	LD   R16,Y
	RET

__ANEGW1:
	NEG  R31
	NEG  R30
	SBCI R31,0
	RET

__MULW12U:
	LDI  R24,17
	CLR  R0
	SUB  R1,R1
	RJMP __MULW12U1
__MULW12U3:
	BRCC __MULW12U2
	ADD  R0,R26
	ADC  R1,R27
__MULW12U2:
	LSR  R1
	ROR  R0
__MULW12U1:
	ROR  R31
	ROR  R30
	DEC  R24
	BRNE __MULW12U3
	RET

__MULW12:
	RCALL __CHKSIGNW
	RCALL __MULW12U
	BRTC __MULW121
	RCALL __ANEGW1
__MULW121:
	RET

__DIVW21U:
	CLR  R0
	CLR  R1
	LDI  R25,16
__DIVW21U1:
	LSL  R26
	ROL  R27
	ROL  R0
	ROL  R1
	SUB  R0,R30
	SBC  R1,R31
	BRCC __DIVW21U2
	ADD  R0,R30
	ADC  R1,R31
	RJMP __DIVW21U3
__DIVW21U2:
	SBR  R26,1
__DIVW21U3:
	DEC  R25
	BRNE __DIVW21U1
	MOV  R30,R26
	MOV  R31,R27
	MOV  R26,R0
	MOV  R27,R1
	RET

__DIVW21:
	RCALL __CHKSIGNW
	RCALL __DIVW21U
	BRTC __DIVW211
	RCALL __ANEGW1
__DIVW211:
	RET

__CHKSIGNW:
	CLT
	SBRS R31,7
	RJMP __CHKSW1
	RCALL __ANEGW1
	SET
__CHKSW1:
	SBRS R27,7
	RJMP __CHKSW2
	NEG  R27
	NEG  R26
	SBCI R27,0
	BLD  R0,0
	INC  R0
	BST  R0,0
__CHKSW2:
	RET

;END OF CODE MARKER
__END_OF_CODE:
